target datalayout = "e-m:e-p270:32:32-p271:32:32-p272:64:64-i64:64-i128:128-f80:128-n8:16:32:64-S128"
target triple = "x86_64-pc-linux-gnu"

; Function Attrs: mustprogress nounwind uwtable
define internal void @_ZL16tMPI_U_SHORT_borPvPKvS1_i(ptr noundef %0, ptr noundef %1, ptr noundef %2, i32 noundef %3) #0 {
  %5 = alloca ptr, align 8
  %6 = alloca ptr, align 8
  %7 = alloca ptr, align 8
  %8 = alloca i32, align 4
  %9 = alloca ptr, align 8
  %10 = alloca ptr, align 8
  %11 = alloca ptr, align 8
  %12 = alloca i32, align 4
  store ptr %0, ptr %5, align 8, !tbaa !3
  store ptr %1, ptr %6, align 8, !tbaa !3
  store ptr %2, ptr %7, align 8, !tbaa !3
  store i32 %3, ptr %8, align 4, !tbaa !7
  call void @llvm.lifetime.start.p0(i64 8, ptr %9) #6
  %13 = load ptr, ptr %6, align 8, !tbaa !3
  store ptr %13, ptr %9, align 8, !tbaa !32
  call void @llvm.lifetime.start.p0(i64 8, ptr %10) #6
  %14 = load ptr, ptr %7, align 8, !tbaa !3
  store ptr %14, ptr %10, align 8, !tbaa !32
  call void @llvm.lifetime.start.p0(i64 8, ptr %11) #6
  %15 = load ptr, ptr %5, align 8, !tbaa !3
  store ptr %15, ptr %11, align 8, !tbaa !32
  call void @llvm.lifetime.start.p0(i64 4, ptr %12) #6
  store i32 0, ptr %12, align 4, !tbaa !7
  br label %16

16:                                               ; preds = %39, %4
  %17 = load i32, ptr %12, align 4, !tbaa !7
  %18 = load i32, ptr %8, align 4, !tbaa !7
  %19 = icmp slt i32 %17, %18
  br i1 %19, label %20, label %42

20:                                               ; preds = %16
  %21 = load ptr, ptr %9, align 8, !tbaa !32
  %22 = load i32, ptr %12, align 4, !tbaa !7
  %23 = sext i32 %22 to i64
  %24 = getelementptr inbounds i16, ptr %21, i64 %23
  %25 = load i16, ptr %24, align 2, !tbaa !34
  %26 = zext i16 %25 to i32
  %27 = load ptr, ptr %10, align 8, !tbaa !32
  %28 = load i32, ptr %12, align 4, !tbaa !7
  %29 = sext i32 %28 to i64
  %30 = getelementptr inbounds i16, ptr %27, i64 %29
  %31 = load i16, ptr %30, align 2, !tbaa !34
  %32 = zext i16 %31 to i32
  %33 = or i32 %26, %32
  %34 = trunc i32 %33 to i16
  %35 = load ptr, ptr %11, align 8, !tbaa !32
  %36 = load i32, ptr %12, align 4, !tbaa !7
  %37 = sext i32 %36 to i64
  %38 = getelementptr inbounds i16, ptr %35, i64 %37
  store i16 %34, ptr %38, align 2, !tbaa !34
  br label %39

39:                                               ; preds = %20
  %40 = load i32, ptr %12, align 4, !tbaa !7
  %41 = add nsw i32 %40, 1
  store i32 %41, ptr %12, align 4, !tbaa !7
  br label %16, !llvm.loop !99

42:                                               ; preds = %16
  call void @llvm.lifetime.end.p0(i64 4, ptr %12) #6
  call void @llvm.lifetime.end.p0(i64 8, ptr %11) #6
  call void @llvm.lifetime.end.p0(i64 8, ptr %10) #6
  call void @llvm.lifetime.end.p0(i64 8, ptr %9) #6
  ret void
}